; ModuleID = '24/744.c'
source_filename = "24/744.c"
target datalayout = "e-m:e-p270:32:32-p271:32:32-p272:64:64-i64:64-f80:128-n8:16:32:64-S128"
target triple = "x86_64-pc-linux-gnu"

@.str = private unnamed_addr constant [3 x i8] c"%s\00", align 1
@.str.1 = private unnamed_addr constant [5 x i8] c"%s\0A\0A\00", align 1

; Function Attrs: noinline nounwind uwtable
define dso_local i32 @main() #0 {
  %1 = alloca i32, align 4
  %2 = alloca [51 x [20 x i8]], align 16
  %3 = alloca [51 x i32], align 16
  %4 = alloca i32, align 4
  %5 = alloca i8*, align 8
  %6 = alloca i32, align 4
  %7 = alloca i32, align 4
  %8 = alloca i32, align 4
  store i32 0, i32* %1, align 4
  %9 = bitcast [51 x i32]* %3 to i8*
  call void @llvm.memset.p0i8.i64(i8* align 16 %9, i8 0, i64 204, i1 false)
  store i32 0, i32* %4, align 4
  br label %10

10:                                               ; preds = %17, %0
  %11 = load i32, i32* %4, align 4
  %12 = sext i32 %11 to i64
  %13 = getelementptr inbounds [51 x [20 x i8]], [51 x [20 x i8]]* %2, i64 0, i64 %12
  %14 = getelementptr inbounds [20 x i8], [20 x i8]* %13, i64 0, i64 0
  %15 = call i32 (i8*, ...) @__isoc99_scanf(i8* getelementptr inbounds ([3 x i8], [3 x i8]* @.str, i64 0, i64 0), i8* %14)
  %16 = icmp ne i32 %15, -1
  br i1 %16, label %17, label %20

17:                                               ; preds = %10
  %18 = load i32, i32* %4, align 4
  %19 = add nsw i32 %18, 1
  store i32 %19, i32* %4, align 4
  br label %10

20:                                               ; preds = %10
  store i32 0, i32* %6, align 4
  br label %21

21:                                               ; preds = %44, %20
  %22 = load i32, i32* %6, align 4
  %23 = load i32, i32* %4, align 4
  %24 = icmp slt i32 %22, %23
  br i1 %24, label %25, label %47

25:                                               ; preds = %21
  %26 = load i32, i32* %6, align 4
  %27 = sext i32 %26 to i64
  %28 = getelementptr inbounds [51 x [20 x i8]], [51 x [20 x i8]]* %2, i64 0, i64 %27
  %29 = getelementptr inbounds [20 x i8], [20 x i8]* %28, i64 0, i64 0
  store i8* %29, i8** %5, align 8
  br label %30

30:                                               ; preds = %35, %25
  %31 = load i8*, i8** %5, align 8
  %32 = load i8, i8* %31, align 1
  %33 = sext i8 %32 to i32
  %34 = icmp ne i32 %33, 0
  br i1 %34, label %35, label %43

35:                                               ; preds = %30
  %36 = load i32, i32* %6, align 4
  %37 = sext i32 %36 to i64
  %38 = getelementptr inbounds [51 x i32], [51 x i32]* %3, i64 0, i64 %37
  %39 = load i32, i32* %38, align 4
  %40 = add nsw i32 %39, 1
  store i32 %40, i32* %38, align 4
  %41 = load i8*, i8** %5, align 8
  %42 = getelementptr inbounds i8, i8* %41, i32 1
  store i8* %42, i8** %5, align 8
  br label %30

43:                                               ; preds = %30
  br label %44

44:                                               ; preds = %43
  %45 = load i32, i32* %6, align 4
  %46 = add nsw i32 %45, 1
  store i32 %46, i32* %6, align 4
  br label %21

47:                                               ; preds = %21
  %48 = getelementptr inbounds [51 x i32], [51 x i32]* %3, i64 0, i64 0
  %49 = load i32, i32* %48, align 16
  store i32 %49, i32* %7, align 4
  store i32 0, i32* %8, align 4
  store i32 1, i32* %6, align 4
  br label %50

50:                                               ; preds = %68, %47
  %51 = load i32, i32* %6, align 4
  %52 = load i32, i32* %4, align 4
  %53 = icmp slt i32 %51, %52
  br i1 %53, label %54, label %71

54:                                               ; preds = %50
  %55 = load i32, i32* %6, align 4
  %56 = sext i32 %55 to i64
  %57 = getelementptr inbounds [51 x i32], [51 x i32]* %3, i64 0, i64 %56
  %58 = load i32, i32* %57, align 4
  %59 = load i32, i32* %7, align 4
  %60 = icmp sgt i32 %58, %59
  br i1 %60, label %61, label %67

61:                                               ; preds = %54
  %62 = load i32, i32* %6, align 4
  %63 = sext i32 %62 to i64
  %64 = getelementptr inbounds [51 x i32], [51 x i32]* %3, i64 0, i64 %63
  %65 = load i32, i32* %64, align 4
  store i32 %65, i32* %7, align 4
  %66 = load i32, i32* %6, align 4
  store i32 %66, i32* %8, align 4
  br label %67

67:                                               ; preds = %61, %54
  br label %68

68:                                               ; preds = %67
  %69 = load i32, i32* %6, align 4
  %70 = add nsw i32 %69, 1
  store i32 %70, i32* %6, align 4
  br label %50

71:                                               ; preds = %50
  %72 = load i32, i32* %8, align 4
  %73 = sext i32 %72 to i64
  %74 = getelementptr inbounds [51 x [20 x i8]], [51 x [20 x i8]]* %2, i64 0, i64 %73
  %75 = getelementptr inbounds [20 x i8], [20 x i8]* %74, i64 0, i64 0
  %76 = call i32 (i8*, ...) @printf(i8* getelementptr inbounds ([5 x i8], [5 x i8]* @.str.1, i64 0, i64 0), i8* %75)
  %77 = getelementptr inbounds [51 x i32], [51 x i32]* %3, i64 0, i64 0
  %78 = load i32, i32* %77, align 16
  store i32 %78, i32* %7, align 4
  store i32 0, i32* %8, align 4
  store i32 1, i32* %6, align 4
  br label %79

79:                                               ; preds = %97, %71
  %80 = load i32, i32* %6, align 4
  %81 = load i32, i32* %4, align 4
  %82 = icmp slt i32 %80, %81
  br i1 %82, label %83, label %100

83:                                               ; preds = %79
  %84 = load i32, i32* %6, align 4
  %85 = sext i32 %84 to i64
  %86 = getelementptr inbounds [51 x i32], [51 x i32]* %3, i64 0, i64 %85
  %87 = load i32, i32* %86, align 4
  %88 = load i32, i32* %7, align 4
  %89 = icmp slt i32 %87, %88
  br i1 %89, label %90, label %96

90:                                               ; preds = %83
  %91 = load i32, i32* %6, align 4
  %92 = sext i32 %91 to i64
  %93 = getelementptr inbounds [51 x i32], [51 x i32]* %3, i64 0, i64 %92
  %94 = load i32, i32* %93, align 4
  store i32 %94, i32* %7, align 4
  %95 = load i32, i32* %6, align 4
  store i32 %95, i32* %8, align 4
  br label %96

96:                                               ; preds = %90, %83
  br label %97

97:                                               ; preds = %96
  %98 = load i32, i32* %6, align 4
  %99 = add nsw i32 %98, 1
  store i32 %99, i32* %6, align 4
  br label %79

100:                                              ; preds = %79
  %101 = load i32, i32* %8, align 4
  %102 = sext i32 %101 to i64
  %103 = getelementptr inbounds [51 x [20 x i8]], [51 x [20 x i8]]* %2, i64 0, i64 %102
  %104 = getelementptr inbounds [20 x i8], [20 x i8]* %103, i64 0, i64 0
  %105 = call i32 (i8*, ...) @printf(i8* getelementptr inbounds ([3 x i8], [3 x i8]* @.str, i64 0, i64 0), i8* %104)
  ret i32 0
}

; Function Attrs: argmemonly nounwind willreturn
declare void @llvm.memset.p0i8.i64(i8* nocapture writeonly, i8, i64, i1 immarg) #1

declare dso_local i32 @__isoc99_scanf(i8*, ...) #2

declare dso_local i32 @printf(i8*, ...) #2


!llvm.module.flags = !{!0}
!llvm.ident = !{!1}

!0 = !{i32 1, !"wchar_size", i32 4}
!1 = !{!"clang version 10.0.0-4ubuntu1 "}
